target datalayout = "e-m:e-p270:32:32-p271:32:32-p272:64:64-i64:64-i128:128-f80:128-n8:16:32:64-S128"
target triple = "x86_64-pc-linux-gnu"

%"struct.std::pair" = type { i16, i16 }

@_ZZN4YAML5Utils12_GLOBAL__N_130WriteDoubleQuoteEscapeSequenceERNS_15ostream_wrapperEiNS_14StringEscaping5valueEE9hexDigits = internal constant [17 x i8] c"0123456789abcdef\00", align 16
@.str.34 = private unnamed_addr constant [2 x i8] c"\\\00", align 1
@.str.35 = private unnamed_addr constant [2 x i8] c"x\00", align 1
@.str.36 = private unnamed_addr constant [2 x i8] c"u\00", align 1
@.str.37 = private unnamed_addr constant [2 x i8] c"U\00", align 1

; Function Attrs: mustprogress nounwind uwtable
define linkonce_odr void @_ZNSt4pairIttEC2IjiTnNSt9enable_ifIXaaclsr5_PCCPE22_MoveConstructiblePairIT_T0_EEclsr5_PCCPE30_ImplicitlyMoveConvertiblePairIS3_S4_EEEbE4typeELb1EEEOS3_OS4_(ptr noundef nonnull align 2 dereferenceable(4) %0, ptr noundef nonnull align 4 dereferenceable(4) %1, ptr noundef nonnull align 4 dereferenceable(4) %2) unnamed_addr #3 comdat align 2 {
  %4 = alloca ptr, align 8
  %5 = alloca ptr, align 8
  %6 = alloca ptr, align 8
  store ptr %0, ptr %4, align 8, !tbaa !129
  store ptr %1, ptr %5, align 8, !tbaa !33
  store ptr %2, ptr %6, align 8, !tbaa !33
  %7 = load ptr, ptr %4, align 8
  %8 = getelementptr inbounds nuw %"struct.std::pair", ptr %7, i32 0, i32 0
  %9 = load ptr, ptr %5, align 8, !tbaa !33
  %10 = load i32, ptr %9, align 4, !tbaa !30
  %11 = trunc i32 %10 to i16
  store i16 %11, ptr %8, align 2, !tbaa !42
  %12 = getelementptr inbounds nuw %"struct.std::pair", ptr %7, i32 0, i32 1
  %13 = load ptr, ptr %6, align 8, !tbaa !33
  %14 = load i32, ptr %13, align 4, !tbaa !30
  %15 = trunc i32 %14 to i16
  store i16 %15, ptr %12, align 2, !tbaa !45
  ret void
}

; Function Attrs: inlinehint mustprogress uwtable
define linkonce_odr noundef nonnull align 8 dereferenceable(57) ptr @_ZN4YAMLlsERNS_15ostream_wrapperEc(ptr noundef nonnull align 8 dereferenceable(57) %0, i8 noundef signext %1) #1 comdat {
  %3 = alloca ptr, align 8
  %4 = alloca i8, align 1
  store ptr %0, ptr %3, align 8, !tbaa !28
  store i8 %1, ptr %4, align 1, !tbaa !20
  %5 = load ptr, ptr %3, align 8, !tbaa !28
  call void @_ZN4YAML15ostream_wrapper5writeEPKcm(ptr noundef nonnull align 8 dereferenceable(57) %5, ptr noundef %4, i64 noundef 1)
  %6 = load ptr, ptr %3, align 8, !tbaa !28
  ret ptr %6
}

; Function Attrs: mustprogress uwtable
define internal i32 @_ZN4YAML5Utils12_GLOBAL__N_124EncodeUTF16SurrogatePairEi(i32 noundef %0) #0 {
  %2 = alloca %"struct.std::pair", align 2
  %3 = alloca i32, align 4
  %4 = alloca i32, align 4
  %5 = alloca i32, align 4
  %6 = alloca i32, align 4
  store i32 %0, ptr %3, align 4, !tbaa !30
  call void @llvm.lifetime.start.p0(i64 4, ptr %4) #5
  store i32 55232, ptr %4, align 4, !tbaa !30
  call void @llvm.lifetime.start.p0(i64 4, ptr %5) #5
  %7 = load i32, ptr %3, align 4, !tbaa !30
  %8 = ashr i32 %7, 10
  %9 = or i32 55232, %8
  store i32 %9, ptr %5, align 4, !tbaa !30
  call void @llvm.lifetime.start.p0(i64 4, ptr %6) #5
  %10 = load i32, ptr %3, align 4, !tbaa !30
  %11 = and i32 %10, 1023
  %12 = or i32 56320, %11
  store i32 %12, ptr %6, align 4, !tbaa !30
  call void @_ZNSt4pairIttEC2IjiTnNSt9enable_ifIXaaclsr5_PCCPE22_MoveConstructiblePairIT_T0_EEclsr5_PCCPE30_ImplicitlyMoveConvertiblePairIS3_S4_EEEbE4typeELb1EEEOS3_OS4_(ptr noundef nonnull align 2 dereferenceable(4) %2, ptr noundef nonnull align 4 dereferenceable(4) %5, ptr noundef nonnull align 4 dereferenceable(4) %6)
  call void @llvm.lifetime.end.p0(i64 4, ptr %6) #5
  call void @llvm.lifetime.end.p0(i64 4, ptr %5) #5
  call void @llvm.lifetime.end.p0(i64 4, ptr %4) #5
  %13 = load i32, ptr %2, align 2
  ret i32 %13
}

; Function Attrs: inlinehint mustprogress uwtable
define linkonce_odr noundef nonnull align 8 dereferenceable(57) ptr @_ZN4YAMLlsILm2EEERNS_15ostream_wrapperES2_RAT__Kc(ptr noundef nonnull align 8 dereferenceable(57) %0, ptr noundef nonnull align 1 dereferenceable(2) %1) #1 comdat {
  %3 = alloca ptr, align 8
  %4 = alloca ptr, align 8
  store ptr %0, ptr %3, align 8, !tbaa !28
  store ptr %1, ptr %4, align 8, !tbaa !3
  %5 = load ptr, ptr %3, align 8, !tbaa !28
  %6 = load ptr, ptr %4, align 8, !tbaa !3
  %7 = getelementptr inbounds [2 x i8], ptr %6, i64 0, i64 0
  call void @_ZN4YAML15ostream_wrapper5writeEPKcm(ptr noundef nonnull align 8 dereferenceable(57) %5, ptr noundef %7, i64 noundef 1)
  %8 = load ptr, ptr %3, align 8, !tbaa !28
  ret ptr %8
}

; Function Attrs: mustprogress uwtable
define internal void @_ZN4YAML5Utils12_GLOBAL__N_130WriteDoubleQuoteEscapeSequenceERNS_15ostream_wrapperEiNS_14StringEscaping5valueE(ptr noundef nonnull align 8 dereferenceable(57) %0, i32 noundef %1, i32 noundef %2) #0 {
  %4 = alloca ptr, align 8
  %5 = alloca i32, align 4
  %6 = alloca i32, align 4
  %7 = alloca i32, align 4
  %8 = alloca %"struct.std::pair", align 2
  %9 = alloca i32, align 4
  store ptr %0, ptr %4, align 8, !tbaa !28
  store i32 %1, ptr %5, align 4, !tbaa !30
  store i32 %2, ptr %6, align 4, !tbaa !39
  %10 = load ptr, ptr %4, align 8, !tbaa !28
  %11 = call noundef nonnull align 8 dereferenceable(57) ptr @_ZN4YAMLlsILm2EEERNS_15ostream_wrapperES2_RAT__Kc(ptr noundef nonnull align 8 dereferenceable(57) %10, ptr noundef nonnull align 1 dereferenceable(2) @.str.34)
  call void @llvm.lifetime.start.p0(i64 4, ptr %7) #5
  store i32 8, ptr %7, align 4, !tbaa !30
  %12 = load i32, ptr %5, align 4, !tbaa !30
  %13 = icmp slt i32 %12, 255
  br i1 %13, label %14, label %20

14:                                               ; preds = %3
  %15 = load i32, ptr %6, align 4, !tbaa !39
  %16 = icmp ne i32 %15, 2
  br i1 %16, label %17, label %20

17:                                               ; preds = %14
  %18 = load ptr, ptr %4, align 8, !tbaa !28
  %19 = call noundef nonnull align 8 dereferenceable(57) ptr @_ZN4YAMLlsILm2EEERNS_15ostream_wrapperES2_RAT__Kc(ptr noundef nonnull align 8 dereferenceable(57) %18, ptr noundef nonnull align 1 dereferenceable(2) @.str.35)
  store i32 2, ptr %7, align 4, !tbaa !30
  br label %47

20:                                               ; preds = %14, %3
  %21 = load i32, ptr %5, align 4, !tbaa !30
  %22 = icmp slt i32 %21, 65535
  br i1 %22, label %23, label %26

23:                                               ; preds = %20
  %24 = load ptr, ptr %4, align 8, !tbaa !28
  %25 = call noundef nonnull align 8 dereferenceable(57) ptr @_ZN4YAMLlsILm2EEERNS_15ostream_wrapperES2_RAT__Kc(ptr noundef nonnull align 8 dereferenceable(57) %24, ptr noundef nonnull align 1 dereferenceable(2) @.str.36)
  store i32 4, ptr %7, align 4, !tbaa !30
  br label %46

26:                                               ; preds = %20
  %27 = load i32, ptr %6, align 4, !tbaa !39
  %28 = icmp ne i32 %27, 2
  br i1 %28, label %29, label %32

29:                                               ; preds = %26
  %30 = load ptr, ptr %4, align 8, !tbaa !28
  %31 = call noundef nonnull align 8 dereferenceable(57) ptr @_ZN4YAMLlsILm2EEERNS_15ostream_wrapperES2_RAT__Kc(ptr noundef nonnull align 8 dereferenceable(57) %30, ptr noundef nonnull align 1 dereferenceable(2) @.str.37)
  store i32 8, ptr %7, align 4, !tbaa !30
  br label %45

32:                                               ; preds = %26
  call void @llvm.lifetime.start.p0(i64 4, ptr %8) #5
  %33 = load i32, ptr %5, align 4, !tbaa !30
  %34 = call i32 @_ZN4YAML5Utils12_GLOBAL__N_124EncodeUTF16SurrogatePairEi(i32 noundef %33)
  store i32 %34, ptr %8, align 2
  %35 = load ptr, ptr %4, align 8, !tbaa !28
  %36 = getelementptr inbounds nuw %"struct.std::pair", ptr %8, i32 0, i32 0
  %37 = load i16, ptr %36, align 2, !tbaa !42
  %38 = zext i16 %37 to i32
  %39 = load i32, ptr %6, align 4, !tbaa !39
  call void @_ZN4YAML5Utils12_GLOBAL__N_130WriteDoubleQuoteEscapeSequenceERNS_15ostream_wrapperEiNS_14StringEscaping5valueE(ptr noundef nonnull align 8 dereferenceable(57) %35, i32 noundef %38, i32 noundef %39)
  %40 = load ptr, ptr %4, align 8, !tbaa !28
  %41 = getelementptr inbounds nuw %"struct.std::pair", ptr %8, i32 0, i32 1
  %42 = load i16, ptr %41, align 2, !tbaa !45
  %43 = zext i16 %42 to i32
  %44 = load i32, ptr %6, align 4, !tbaa !39
  call void @_ZN4YAML5Utils12_GLOBAL__N_130WriteDoubleQuoteEscapeSequenceERNS_15ostream_wrapperEiNS_14StringEscaping5valueE(ptr noundef nonnull align 8 dereferenceable(57) %40, i32 noundef %43, i32 noundef %44)
  store i32 1, ptr %9, align 4
  call void @llvm.lifetime.end.p0(i64 4, ptr %8) #5
  br label %67

45:                                               ; preds = %29
  br label %46

46:                                               ; preds = %45, %23
  br label %47

47:                                               ; preds = %46, %17
  br label %48

48:                                               ; preds = %63, %47
  %49 = load i32, ptr %7, align 4, !tbaa !30
  %50 = icmp sgt i32 %49, 0
  br i1 %50, label %51, label %66

51:                                               ; preds = %48
  %52 = load ptr, ptr %4, align 8, !tbaa !28
  %53 = load i32, ptr %5, align 4, !tbaa !30
  %54 = load i32, ptr %7, align 4, !tbaa !30
  %55 = sub nsw i32 %54, 1
  %56 = mul nsw i32 4, %55
  %57 = ashr i32 %53, %56
  %58 = and i32 %57, 15
  %59 = sext i32 %58 to i64
  %60 = getelementptr inbounds [17 x i8], ptr @_ZZN4YAML5Utils12_GLOBAL__N_130WriteDoubleQuoteEscapeSequenceERNS_15ostream_wrapperEiNS_14StringEscaping5valueEE9hexDigits, i64 0, i64 %59
  %61 = load i8, ptr %60, align 1, !tbaa !20
  %62 = call noundef nonnull align 8 dereferenceable(57) ptr @_ZN4YAMLlsERNS_15ostream_wrapperEc(ptr noundef nonnull align 8 dereferenceable(57) %52, i8 noundef signext %61)
  br label %63

63:                                               ; preds = %51
  %64 = load i32, ptr %7, align 4, !tbaa !30
  %65 = add nsw i32 %64, -1
  store i32 %65, ptr %7, align 4, !tbaa !30
  br label %48, !llvm.loop !46

66:                                               ; preds = %48
  store i32 0, ptr %9, align 4
  br label %67

67:                                               ; preds = %66, %32
  call void @llvm.lifetime.end.p0(i64 4, ptr %7) #5
  %68 = load i32, ptr %9, align 4
  switch i32 %68, label %70 [
    i32 0, label %69
    i32 1, label %69
  ]

69:                                               ; preds = %67, %67
  ret void

70:                                               ; preds = %67
  unreachable
}