; Function Attrs: mustprogress uwtable
define internal fastcc void @_ZN4YAML5Utils12_GLOBAL__N_130WriteDoubleQuoteEscapeSequenceERNS_15ostream_wrapperEiNS_14StringEscaping5valueE(ptr noundef nonnull align 8 dereferenceable(57) %0, i32 noundef %1, i32 noundef %2) unnamed_addr #0 {
  %4 = alloca i8, align 1
  tail call void @_ZN4YAML15ostream_wrapper5writeEPKcm(ptr noundef nonnull align 8 dereferenceable(57) %0, ptr noundef nonnull @.str.34, i64 noundef 1)
  %5 = icmp slt i32 %1, 255
  %6 = icmp ne i32 %2, 2
  %or.cond25 = and i1 %5, %6
  br i1 %or.cond25, label %tailrecurse._crit_edge, label %.lr.ph.split.us

.lr.ph.split.us:                                  ; preds = %3
  %7 = icmp slt i32 %1, 65535
  %brmerge = or i1 %7, %6
  %.str.36.mux = select i1 %7, ptr @.str.36, ptr @.str.37
  %.mux = select i1 %7, i32 4, i32 8
  br i1 %brmerge, label %tailrecurse._crit_edge, label %tailrecurse.us

tailrecurse.us:                                   ; preds = %.lr.ph.split.us
  %8 = and i32 %1, 1023
  %9 = or disjoint i32 %8, 56320
  %10 = lshr i32 %1, 10
  %11 = and i32 %10, 10303
  %12 = or disjoint i32 %11, 55232
  tail call fastcc void @_ZN4YAML5Utils12_GLOBAL__N_130WriteDoubleQuoteEscapeSequenceERNS_15ostream_wrapperEiNS_14StringEscaping5valueE(ptr noundef nonnull align 8 dereferenceable(57) %0, i32 noundef %12, i32 noundef 2)
  tail call void @_ZN4YAML15ostream_wrapper5writeEPKcm(ptr noundef nonnull align 8 dereferenceable(57) %0, ptr noundef nonnull @.str.34, i64 noundef 1)
  br label %tailrecurse._crit_edge

tailrecurse._crit_edge:                           ; preds = %.lr.ph.split.us, %tailrecurse.us, %3
  %.str.36.sink = phi ptr [ @.str.35, %3 ], [ @.str.36, %tailrecurse.us ], [ %.str.36.mux, %.lr.ph.split.us ]
  %.tr2024 = phi i32 [ %1, %3 ], [ %9, %tailrecurse.us ], [ %1, %.lr.ph.split.us ]
  %.0 = phi i32 [ 2, %3 ], [ 4, %tailrecurse.us ], [ %.mux, %.lr.ph.split.us ]
  tail call void @_ZN4YAML15ostream_wrapper5writeEPKcm(ptr noundef nonnull align 8 dereferenceable(57) %0, ptr noundef nonnull %.str.36.sink, i64 noundef 1)
  br label %13

13:                                               ; preds = %tailrecurse._crit_edge, %13
  %.133 = phi i32 [ %.0, %tailrecurse._crit_edge ], [ %21, %13 ]
  %14 = shl i32 %.133, 2
  %15 = add nsw i32 %14, -4
  %16 = ashr i32 %.tr2024, %15
  %17 = and i32 %16, 15
  %18 = zext nneg i32 %17 to i64
  %19 = getelementptr inbounds nuw [17 x i8], ptr @_ZZN4YAML5Utils12_GLOBAL__N_130WriteDoubleQuoteEscapeSequenceERNS_15ostream_wrapperEiNS_14StringEscaping5valueEE9hexDigits, i64 0, i64 %18
  %20 = load i8, ptr %19, align 1, !tbaa !12
  call void @llvm.lifetime.start.p0(i64 1, ptr nonnull %4)
  store i8 %20, ptr %4, align 1, !tbaa !12
  call void @_ZN4YAML15ostream_wrapper5writeEPKcm(ptr noundef nonnull align 8 dereferenceable(57) %0, ptr noundef nonnull %4, i64 noundef 1)
  call void @llvm.lifetime.end.p0(i64 1, ptr nonnull %4)
  %21 = add nsw i32 %.133, -1
  %22 = icmp samesign ugt i32 %.133, 1
  br i1 %22, label %13, label %23, !llvm.loop !20

23:                                               ; preds = %13
  ret void
}